target datalayout = "e-m:e-p270:32:32-p271:32:32-p272:64:64-i64:64-i128:128-f80:128-n8:16:32:64-S128"
target triple = "x86_64-pc-linux-gnu"

%"class.LIEF::MachO::ChainedBindingInfo" = type { %"class.LIEF::MachO::BindingInfo", i32, i32, i32, i32, %union.anon }
%"class.LIEF::MachO::BindingInfo" = type { %"class.LIEF::Object", ptr, ptr, i32, i64, i8, ptr, i64 }
%"class.LIEF::Object" = type { ptr }
%union.anon = type { ptr }

; Function Attrs: mustprogress uwtable
define void @_ZN4LIEF5MachO18ChainedBindingInfoC2ERKS1_(ptr noundef nonnull align 8 dereferenceable(88) %0, ptr noundef nonnull align 8 dereferenceable(88) %1) unnamed_addr #0 align 2 personality ptr @__gxx_personality_v0 {
  %3 = alloca ptr, align 8
  %4 = alloca ptr, align 8
  %5 = alloca ptr, align 8
  %6 = alloca i32, align 4
  store ptr %0, ptr %3, align 8
  store ptr %1, ptr %4, align 8
  %7 = load ptr, ptr %3, align 8
  %8 = load ptr, ptr %4, align 8
  call void @_ZN4LIEF5MachO11BindingInfoC2ERKS1_(ptr noundef nonnull align 8 dereferenceable(64) %7, ptr noundef nonnull align 8 dereferenceable(64) %8)
  store ptr getelementptr inbounds ({ [10 x ptr] }, ptr @_ZTVN4LIEF5MachO18ChainedBindingInfoE, i32 0, i32 0, i32 2), ptr %7, align 8
  %9 = getelementptr inbounds %"class.LIEF::MachO::ChainedBindingInfo", ptr %7, i32 0, i32 1
  %10 = load ptr, ptr %4, align 8
  %11 = getelementptr inbounds %"class.LIEF::MachO::ChainedBindingInfo", ptr %10, i32 0, i32 1
  %12 = load i32, ptr %11, align 8
  store i32 %12, ptr %9, align 8
  %13 = getelementptr inbounds %"class.LIEF::MachO::ChainedBindingInfo", ptr %7, i32 0, i32 2
  %14 = load ptr, ptr %4, align 8
  %15 = getelementptr inbounds %"class.LIEF::MachO::ChainedBindingInfo", ptr %14, i32 0, i32 2
  %16 = load i32, ptr %15, align 4
  store i32 %16, ptr %13, align 4
  %17 = getelementptr inbounds %"class.LIEF::MachO::ChainedBindingInfo", ptr %7, i32 0, i32 3
  %18 = load ptr, ptr %4, align 8
  %19 = getelementptr inbounds %"class.LIEF::MachO::ChainedBindingInfo", ptr %18, i32 0, i32 3
  %20 = load i32, ptr %19, align 8
  store i32 %20, ptr %17, align 8
  %21 = getelementptr inbounds %"class.LIEF::MachO::ChainedBindingInfo", ptr %7, i32 0, i32 4
  %22 = load ptr, ptr %4, align 8
  %23 = getelementptr inbounds %"class.LIEF::MachO::ChainedBindingInfo", ptr %22, i32 0, i32 4
  %24 = load i32, ptr %23, align 4
  store i32 %24, ptr %21, align 4
  %25 = getelementptr inbounds %"class.LIEF::MachO::ChainedBindingInfo", ptr %7, i32 0, i32 5
  store ptr null, ptr %25, align 8
  %26 = getelementptr inbounds %"class.LIEF::MachO::ChainedBindingInfo", ptr %7, i32 0, i32 4
  %27 = load i32, ptr %26, align 4
  switch i32 %27, label %75 [
    i32 2, label %28
    i32 1, label %39
    i32 3, label %46
    i32 4, label %53
    i32 6, label %60
    i32 5, label %67
    i32 0, label %74
  ]

28:                                               ; preds = %2
  %29 = invoke noalias noundef nonnull ptr @_Znwm(i64 noundef 8) #8
          to label %30 unwind label %35

30:                                               ; preds = %28
  %31 = load ptr, ptr %4, align 8
  %32 = getelementptr inbounds %"class.LIEF::MachO::ChainedBindingInfo", ptr %31, i32 0, i32 5
  %33 = load ptr, ptr %32, align 8
  call void @llvm.memcpy.p0.p0.i64(ptr align 8 %29, ptr align 8 %33, i64 8, i1 false)
  %34 = getelementptr inbounds %"class.LIEF::MachO::ChainedBindingInfo", ptr %7, i32 0, i32 5
  store ptr %29, ptr %34, align 8
  br label %75

35:                                               ; preds = %67, %60, %53, %46, %39, %28
  %36 = landingpad { ptr, i32 }
          cleanup
  %37 = extractvalue { ptr, i32 } %36, 0
  store ptr %37, ptr %5, align 8
  %38 = extractvalue { ptr, i32 } %36, 1
  store i32 %38, ptr %6, align 4
  call void @_ZN4LIEF5MachO11BindingInfoD2Ev(ptr noundef nonnull align 8 dereferenceable(64) %7) #9
  br label %76

39:                                               ; preds = %2
  %40 = invoke noalias noundef nonnull ptr @_Znwm(i64 noundef 8) #8
          to label %41 unwind label %35

41:                                               ; preds = %39
  %42 = load ptr, ptr %4, align 8
  %43 = getelementptr inbounds %"class.LIEF::MachO::ChainedBindingInfo", ptr %42, i32 0, i32 5
  %44 = load ptr, ptr %43, align 8
  call void @llvm.memcpy.p0.p0.i64(ptr align 8 %40, ptr align 8 %44, i64 8, i1 false)
  %45 = getelementptr inbounds %"class.LIEF::MachO::ChainedBindingInfo", ptr %7, i32 0, i32 5
  store ptr %40, ptr %45, align 8
  br label %75

46:                                               ; preds = %2
  %47 = invoke noalias noundef nonnull ptr @_Znwm(i64 noundef 8) #8
          to label %48 unwind label %35

48:                                               ; preds = %46
  %49 = load ptr, ptr %4, align 8
  %50 = getelementptr inbounds %"class.LIEF::MachO::ChainedBindingInfo", ptr %49, i32 0, i32 5
  %51 = load ptr, ptr %50, align 8
  call void @llvm.memcpy.p0.p0.i64(ptr align 8 %47, ptr align 8 %51, i64 8, i1 false)
  %52 = getelementptr inbounds %"class.LIEF::MachO::ChainedBindingInfo", ptr %7, i32 0, i32 5
  store ptr %47, ptr %52, align 8
  br label %75

53:                                               ; preds = %2
  %54 = invoke noalias noundef nonnull ptr @_Znwm(i64 noundef 8) #8
          to label %55 unwind label %35

55:                                               ; preds = %53
  %56 = load ptr, ptr %4, align 8
  %57 = getelementptr inbounds %"class.LIEF::MachO::ChainedBindingInfo", ptr %56, i32 0, i32 5
  %58 = load ptr, ptr %57, align 8
  call void @llvm.memcpy.p0.p0.i64(ptr align 8 %54, ptr align 8 %58, i64 8, i1 false)
  %59 = getelementptr inbounds %"class.LIEF::MachO::ChainedBindingInfo", ptr %7, i32 0, i32 5
  store ptr %54, ptr %59, align 8
  br label %75

60:                                               ; preds = %2
  %61 = invoke noalias noundef nonnull ptr @_Znwm(i64 noundef 4) #8
          to label %62 unwind label %35

62:                                               ; preds = %60
  %63 = load ptr, ptr %4, align 8
  %64 = getelementptr inbounds %"class.LIEF::MachO::ChainedBindingInfo", ptr %63, i32 0, i32 5
  %65 = load ptr, ptr %64, align 8
  call void @llvm.memcpy.p0.p0.i64(ptr align 4 %61, ptr align 4 %65, i64 4, i1 false)
  %66 = getelementptr inbounds %"class.LIEF::MachO::ChainedBindingInfo", ptr %7, i32 0, i32 5
  store ptr %61, ptr %66, align 8
  br label %75

67:                                               ; preds = %2
  %68 = invoke noalias noundef nonnull ptr @_Znwm(i64 noundef 8) #8
          to label %69 unwind label %35

69:                                               ; preds = %67
  %70 = load ptr, ptr %4, align 8
  %71 = getelementptr inbounds %"class.LIEF::MachO::ChainedBindingInfo", ptr %70, i32 0, i32 5
  %72 = load ptr, ptr %71, align 8
  call void @llvm.memcpy.p0.p0.i64(ptr align 8 %68, ptr align 8 %72, i64 8, i1 false)
  %73 = getelementptr inbounds %"class.LIEF::MachO::ChainedBindingInfo", ptr %7, i32 0, i32 5
  store ptr %68, ptr %73, align 8
  br label %75

74:                                               ; preds = %2
  br label %75

75:                                               ; preds = %74, %69, %62, %55, %48, %41, %30, %2
  ret void

76:                                               ; preds = %35
  %77 = load ptr, ptr %5, align 8
  %78 = load i32, ptr %6, align 4
  %79 = insertvalue { ptr, i32 } poison, ptr %77, 0
  %80 = insertvalue { ptr, i32 } %79, i32 %78, 1
  resume { ptr, i32 } %80
}