; Function Attrs: mustprogress uwtable
define void @_ZN4LIEF5MachO18ChainedBindingInfoC2ERKS1_(ptr noundef nonnull align 8 dereferenceable(88) %0, ptr noundef nonnull align 8 dereferenceable(88) %1) unnamed_addr #0 align 2 personality ptr @__gxx_personality_v0 {
  tail call void @_ZN4LIEF5MachO11BindingInfoC2ERKS1_(ptr noundef nonnull align 8 dereferenceable(64) %0, ptr noundef nonnull align 8 dereferenceable(64) %1)
  store ptr getelementptr inbounds ({ [10 x ptr] }, ptr @_ZTVN4LIEF5MachO18ChainedBindingInfoE, i64 0, i32 0, i64 2), ptr %0, align 8
  %3 = getelementptr inbounds i8, ptr %0, i64 64
  %4 = getelementptr inbounds i8, ptr %1, i64 64
  %5 = load i32, ptr %4, align 8
  store i32 %5, ptr %3, align 8
  %6 = getelementptr inbounds i8, ptr %0, i64 68
  %7 = getelementptr inbounds i8, ptr %1, i64 68
  %8 = load i32, ptr %7, align 4
  store i32 %8, ptr %6, align 4
  %9 = getelementptr inbounds i8, ptr %0, i64 72
  %10 = getelementptr inbounds i8, ptr %1, i64 72
  %11 = load i32, ptr %10, align 8
  store i32 %11, ptr %9, align 8
  %12 = getelementptr inbounds i8, ptr %0, i64 76
  %13 = getelementptr inbounds i8, ptr %1, i64 76
  %14 = load i32, ptr %13, align 4
  store i32 %14, ptr %12, align 4
  %15 = getelementptr inbounds i8, ptr %0, i64 80
  store ptr null, ptr %15, align 8
  switch i32 %14, label %54 [
    i32 2, label %16
    i32 1, label %24
    i32 3, label %30
    i32 4, label %36
    i32 6, label %42
    i32 5, label %48
  ]

16:                                               ; preds = %2
  %17 = invoke noalias noundef nonnull dereferenceable(8) ptr @_Znwm(i64 noundef 8) #10
          to label %18 unwind label %22

18:                                               ; preds = %16
  %19 = getelementptr inbounds i8, ptr %1, i64 80
  %20 = load ptr, ptr %19, align 8
  %21 = load i64, ptr %20, align 8
  store i64 %21, ptr %17, align 8
  br label %.sink.split

22:                                               ; preds = %48, %42, %36, %30, %24, %16
  %23 = landingpad { ptr, i32 }
          cleanup
  tail call void @_ZN4LIEF5MachO11BindingInfoD2Ev(ptr noundef nonnull align 8 dereferenceable(64) %0) #11
  resume { ptr, i32 } %23

24:                                               ; preds = %2
  %25 = invoke noalias noundef nonnull dereferenceable(8) ptr @_Znwm(i64 noundef 8) #10
          to label %26 unwind label %22

26:                                               ; preds = %24
  %27 = getelementptr inbounds i8, ptr %1, i64 80
  %28 = load ptr, ptr %27, align 8
  %29 = load i64, ptr %28, align 8
  store i64 %29, ptr %25, align 8
  br label %.sink.split

30:                                               ; preds = %2
  %31 = invoke noalias noundef nonnull dereferenceable(8) ptr @_Znwm(i64 noundef 8) #10
          to label %32 unwind label %22

32:                                               ; preds = %30
  %33 = getelementptr inbounds i8, ptr %1, i64 80
  %34 = load ptr, ptr %33, align 8
  %35 = load i64, ptr %34, align 8
  store i64 %35, ptr %31, align 8
  br label %.sink.split

36:                                               ; preds = %2
  %37 = invoke noalias noundef nonnull dereferenceable(8) ptr @_Znwm(i64 noundef 8) #10
          to label %38 unwind label %22

38:                                               ; preds = %36
  %39 = getelementptr inbounds i8, ptr %1, i64 80
  %40 = load ptr, ptr %39, align 8
  %41 = load i64, ptr %40, align 8
  store i64 %41, ptr %37, align 8
  br label %.sink.split

42:                                               ; preds = %2
  %43 = invoke noalias noundef nonnull dereferenceable(4) ptr @_Znwm(i64 noundef 4) #10
          to label %44 unwind label %22

44:                                               ; preds = %42
  %45 = getelementptr inbounds i8, ptr %1, i64 80
  %46 = load ptr, ptr %45, align 8
  %47 = load i32, ptr %46, align 4
  store i32 %47, ptr %43, align 4
  br label %.sink.split

48:                                               ; preds = %2
  %49 = invoke noalias noundef nonnull dereferenceable(8) ptr @_Znwm(i64 noundef 8) #10
          to label %50 unwind label %22

50:                                               ; preds = %48
  %51 = getelementptr inbounds i8, ptr %1, i64 80
  %52 = load ptr, ptr %51, align 8
  %53 = load i64, ptr %52, align 8
  store i64 %53, ptr %49, align 8
  br label %.sink.split

.sink.split:                                      ; preds = %18, %26, %32, %38, %44, %50
  %.sink = phi ptr [ %49, %50 ], [ %43, %44 ], [ %37, %38 ], [ %31, %32 ], [ %25, %26 ], [ %17, %18 ]
  store ptr %.sink, ptr %15, align 8
  br label %54

54:                                               ; preds = %.sink.split, %2
  ret void
}